; Function Attrs: nounwind uwtable
define ptr @l_Array_forIn_x27Unsafe_loop___at_Lean_Elab_Deriving_ToExpr_mkInstanceCmds___spec__3___boxed(ptr noundef %0, ptr noundef %1, ptr noundef %2, ptr noundef %3, ptr noundef %4, ptr noundef %5, ptr noundef %6, ptr noundef %7, ptr noundef %8, ptr noundef %9, ptr noundef %10, ptr noundef %11, ptr noundef %12, ptr noundef %13) local_unnamed_addr #0 {
  %15 = getelementptr i8, ptr %4, i64 8
  %.val37 = load i64, ptr %15, align 8, !tbaa !12
  %16 = ptrtoint ptr %4 to i64
  %17 = and i64 %16, 1
  %.not = icmp eq i64 %17, 0
  br i1 %.not, label %18, label %lean_dec.exit26

18:                                               ; preds = %14
  %19 = load i32, ptr %4, align 4, !tbaa !8
  %20 = icmp sgt i32 %19, 1
  br i1 %20, label %21, label %23, !prof !11

21:                                               ; preds = %18
  %22 = add nsw i32 %19, -1
  store i32 %22, ptr %4, align 4, !tbaa !8
  br label %lean_dec.exit26

23:                                               ; preds = %18
  %.not.i = icmp eq i32 %19, 0
  br i1 %.not.i, label %lean_dec.exit26, label %24

24:                                               ; preds = %23
  tail call void @lean_dec_ref_cold(ptr noundef nonnull %4) #5
  br label %lean_dec.exit26

lean_dec.exit26:                                  ; preds = %24, %23, %21, %14
  %25 = getelementptr i8, ptr %5, i64 8
  %.val = load i64, ptr %25, align 8, !tbaa !12
  %26 = ptrtoint ptr %5 to i64
  %27 = and i64 %26, 1
  %.not38 = icmp eq i64 %27, 0
  br i1 %.not38, label %28, label %lean_dec.exit25

28:                                               ; preds = %lean_dec.exit26
  %29 = load i32, ptr %5, align 4, !tbaa !8
  %30 = icmp sgt i32 %29, 1
  br i1 %30, label %31, label %33, !prof !11

31:                                               ; preds = %28
  %32 = add nsw i32 %29, -1
  store i32 %32, ptr %5, align 4, !tbaa !8
  br label %lean_dec.exit25

33:                                               ; preds = %28
  %.not.i27 = icmp eq i32 %29, 0
  br i1 %.not.i27, label %lean_dec.exit25, label %34

34:                                               ; preds = %33
  tail call void @lean_dec_ref_cold(ptr noundef nonnull %5) #5
  br label %lean_dec.exit25

lean_dec.exit25:                                  ; preds = %34, %33, %31, %lean_dec.exit26
  %35 = tail call ptr @l_Array_forIn_x27Unsafe_loop___at_Lean_Elab_Deriving_ToExpr_mkInstanceCmds___spec__3(ptr noundef %0, ptr poison, ptr poison, ptr noundef %3, i64 noundef %.val37, i64 noundef %.val, ptr noundef %6, ptr noundef %7, ptr noundef %8, ptr noundef %9, ptr noundef %10, ptr noundef %11, ptr noundef %12, ptr noundef %13)
  %36 = ptrtoint ptr %3 to i64
  %37 = and i64 %36, 1
  %.not39 = icmp eq i64 %37, 0
  br i1 %.not39, label %38, label %lean_dec.exit24

38:                                               ; preds = %lean_dec.exit25
  %39 = load i32, ptr %3, align 4, !tbaa !8
  %40 = icmp sgt i32 %39, 1
  br i1 %40, label %41, label %43, !prof !11

41:                                               ; preds = %38
  %42 = add nsw i32 %39, -1
  store i32 %42, ptr %3, align 4, !tbaa !8
  br label %lean_dec.exit24

43:                                               ; preds = %38
  %.not.i29 = icmp eq i32 %39, 0
  br i1 %.not.i29, label %lean_dec.exit24, label %44

44:                                               ; preds = %43
  tail call void @lean_dec_ref_cold(ptr noundef nonnull %3) #5
  br label %lean_dec.exit24

lean_dec.exit24:                                  ; preds = %44, %43, %41, %lean_dec.exit25
  %45 = ptrtoint ptr %2 to i64
  %46 = and i64 %45, 1
  %.not40 = icmp eq i64 %46, 0
  br i1 %.not40, label %47, label %lean_dec.exit23

47:                                               ; preds = %lean_dec.exit24
  %48 = load i32, ptr %2, align 4, !tbaa !8
  %49 = icmp sgt i32 %48, 1
  br i1 %49, label %50, label %52, !prof !11

50:                                               ; preds = %47
  %51 = add nsw i32 %48, -1
  store i32 %51, ptr %2, align 4, !tbaa !8
  br label %lean_dec.exit23

52:                                               ; preds = %47
  %.not.i31 = icmp eq i32 %48, 0
  br i1 %.not.i31, label %lean_dec.exit23, label %53

53:                                               ; preds = %52
  tail call void @lean_dec_ref_cold(ptr noundef nonnull %2) #5
  br label %lean_dec.exit23

lean_dec.exit23:                                  ; preds = %53, %52, %50, %lean_dec.exit24
  %54 = ptrtoint ptr %1 to i64
  %55 = and i64 %54, 1
  %.not41 = icmp eq i64 %55, 0
  br i1 %.not41, label %56, label %lean_dec.exit22

56:                                               ; preds = %lean_dec.exit23
  %57 = load i32, ptr %1, align 4, !tbaa !8
  %58 = icmp sgt i32 %57, 1
  br i1 %58, label %59, label %61, !prof !11

59:                                               ; preds = %56
  %60 = add nsw i32 %57, -1
  store i32 %60, ptr %1, align 4, !tbaa !8
  br label %lean_dec.exit22

61:                                               ; preds = %56
  %.not.i33 = icmp eq i32 %57, 0
  br i1 %.not.i33, label %lean_dec.exit22, label %62

62:                                               ; preds = %61
  tail call void @lean_dec_ref_cold(ptr noundef nonnull %1) #5
  br label %lean_dec.exit22

lean_dec.exit22:                                  ; preds = %62, %61, %59, %lean_dec.exit23
  %63 = ptrtoint ptr %0 to i64
  %64 = and i64 %63, 1
  %.not42 = icmp eq i64 %64, 0
  br i1 %.not42, label %65, label %lean_dec.exit

65:                                               ; preds = %lean_dec.exit22
  %66 = load i32, ptr %0, align 4, !tbaa !8
  %67 = icmp sgt i32 %66, 1
  br i1 %67, label %68, label %70, !prof !11

68:                                               ; preds = %65
  %69 = add nsw i32 %66, -1
  store i32 %69, ptr %0, align 4, !tbaa !8
  br label %lean_dec.exit

70:                                               ; preds = %65
  %.not.i35 = icmp eq i32 %66, 0
  br i1 %.not.i35, label %lean_dec.exit, label %71

71:                                               ; preds = %70
  tail call void @lean_dec_ref_cold(ptr noundef nonnull %0) #5
  br label %lean_dec.exit

lean_dec.exit:                                    ; preds = %71, %70, %68, %lean_dec.exit22
  ret ptr %35
}